target datalayout = "e-m:e-p270:32:32-p271:32:32-p272:64:64-i64:64-i128:128-f80:128-n8:16:32:64-S128"
target triple = "x86_64-pc-linux-gnu"

%struct.MinRegMan_t_ = type { i32, i32, i32, i32, i32, i32, i32, i32, i32, i32, i32, ptr, i32, i32, i32, i32, i32, i32, i32, i32, i32, ptr, ptr, ptr, ptr, ptr, ptr, ptr, ptr, ptr, i32 }
%struct.Abc_Ntk_t_ = type { i32, i32, ptr, ptr, ptr, ptr, ptr, ptr, ptr, ptr, ptr, ptr, ptr, [11 x i32], i32, i32, i32, i32, ptr, i32, ptr, ptr, i32, i32, i32, double, i32, %struct.Vec_Int_t_, ptr, ptr, ptr, ptr, ptr, float, i32, ptr, ptr, ptr, ptr, ptr, ptr, ptr, ptr, ptr, ptr, ptr, ptr, ptr, ptr, ptr, ptr, ptr, ptr, ptr, ptr, ptr, ptr }
%struct.Vec_Int_t_ = type { i32, i32, ptr }
%struct.Vec_Ptr_t_ = type { i32, i32, ptr }
%struct.Abc_Obj_t_ = type { ptr, ptr, i32, i32, %struct.Vec_Int_t_, %struct.Vec_Int_t_, %union.anon.0, %union.anon.1 }
%union.anon.0 = type { ptr }
%union.anon.1 = type { ptr }

@fPathError = global i32 0, align 4
@pManMR = global ptr null, align 8
@.str.33 = private unnamed_addr constant [2 x i8] c"\0A\00", align 1
@.str.44 = private unnamed_addr constant [29 x i8] c"\0AERROR: no-latch path (end)\0A\00", align 1
@.str.45 = private unnamed_addr constant [37 x i8] c"\0AERROR: extra-latch path to outputs\0A\00", align 1
@.str.46 = private unnamed_addr constant [25 x i8] c"\0AERROR: mult-latch path\0A\00", align 1
@.str.47 = private unnamed_addr constant [31 x i8] c"\0AERROR: no-latch path (inter)\0A\00", align 1

; Function Attrs: inlinehint nounwind uwtable
define internal i32 @Abc_ObjIsBo(ptr noundef %0) #3 {
  %2 = alloca ptr, align 8
  store ptr %0, ptr %2, align 8, !tbaa !46
  %3 = load ptr, ptr %2, align 8, !tbaa !46
  %4 = getelementptr inbounds nuw %struct.Abc_Obj_t_, ptr %3, i32 0, i32 3
  %5 = load i32, ptr %4, align 4
  %6 = and i32 %5, 15
  %7 = icmp eq i32 %6, 5
  %8 = zext i1 %7 to i32
  ret i32 %8
}

; Function Attrs: inlinehint nounwind uwtable
define internal ptr @Abc_ObjFanout(ptr noundef %0, i32 noundef %1) #3 {
  %3 = alloca ptr, align 8
  %4 = alloca i32, align 4
  store ptr %0, ptr %3, align 8, !tbaa !46
  store i32 %1, ptr %4, align 4, !tbaa !8
  %5 = load ptr, ptr %3, align 8, !tbaa !46
  %6 = getelementptr inbounds nuw %struct.Abc_Obj_t_, ptr %5, i32 0, i32 0
  %7 = load ptr, ptr %6, align 8, !tbaa !71
  %8 = getelementptr inbounds nuw %struct.Abc_Ntk_t_, ptr %7, i32 0, i32 5
  %9 = load ptr, ptr %8, align 8, !tbaa !57
  %10 = getelementptr inbounds nuw %struct.Vec_Ptr_t_, ptr %9, i32 0, i32 2
  %11 = load ptr, ptr %10, align 8, !tbaa !68
  %12 = load ptr, ptr %3, align 8, !tbaa !46
  %13 = getelementptr inbounds nuw %struct.Abc_Obj_t_, ptr %12, i32 0, i32 5
  %14 = getelementptr inbounds nuw %struct.Vec_Int_t_, ptr %13, i32 0, i32 2
  %15 = load ptr, ptr %14, align 8, !tbaa !76
  %16 = load i32, ptr %4, align 4, !tbaa !8
  %17 = sext i32 %16 to i64
  %18 = getelementptr inbounds i32, ptr %15, i64 %17
  %19 = load i32, ptr %18, align 4, !tbaa !8
  %20 = sext i32 %19 to i64
  %21 = getelementptr inbounds ptr, ptr %11, i64 %20
  %22 = load ptr, ptr %21, align 8, !tbaa !74
  ret ptr %22
}

; Function Attrs: inlinehint nounwind uwtable
define internal i32 @Abc_ObjFanoutNum(ptr noundef %0) #3 {
  %2 = alloca ptr, align 8
  store ptr %0, ptr %2, align 8, !tbaa !46
  %3 = load ptr, ptr %2, align 8, !tbaa !46
  %4 = getelementptr inbounds nuw %struct.Abc_Obj_t_, ptr %3, i32 0, i32 5
  %5 = getelementptr inbounds nuw %struct.Vec_Int_t_, ptr %4, i32 0, i32 1
  %6 = load i32, ptr %5, align 4, !tbaa !102
  ret i32 %6
}

; Function Attrs: inlinehint nounwind uwtable
define internal i32 @Abc_ObjIsPo(ptr noundef %0) #3 {
  %2 = alloca ptr, align 8
  store ptr %0, ptr %2, align 8, !tbaa !46
  %3 = load ptr, ptr %2, align 8, !tbaa !46
  %4 = getelementptr inbounds nuw %struct.Abc_Obj_t_, ptr %3, i32 0, i32 3
  %5 = load i32, ptr %4, align 4
  %6 = and i32 %5, 15
  %7 = icmp eq i32 %6, 3
  %8 = zext i1 %7 to i32
  ret i32 %8
}

; Function Attrs: inlinehint nounwind uwtable
define internal i32 @Abc_ObjIsLatch(ptr noundef %0) #3 {
  %2 = alloca ptr, align 8
  store ptr %0, ptr %2, align 8, !tbaa !46
  %3 = load ptr, ptr %2, align 8, !tbaa !46
  %4 = getelementptr inbounds nuw %struct.Abc_Obj_t_, ptr %3, i32 0, i32 3
  %5 = load i32, ptr %4, align 4
  %6 = and i32 %5, 15
  %7 = icmp eq i32 %6, 8
  %8 = zext i1 %7 to i32
  ret i32 %8
}

; Function Attrs: nounwind uwtable
define internal i32 @Abc_FlowRetime_VerifyPathLatencies_rec(ptr noundef %0, i32 noundef %1) #0 {
  %3 = alloca i32, align 4
  %4 = alloca ptr, align 8
  %5 = alloca i32, align 4
  %6 = alloca i32, align 4
  %7 = alloca i32, align 4
  %8 = alloca ptr, align 8
  %9 = alloca i32, align 4
  %10 = alloca i32, align 4
  %11 = alloca i32, align 4
  store ptr %0, ptr %4, align 8, !tbaa !46
  store i32 %1, ptr %5, align 4, !tbaa !8
  call void @llvm.lifetime.start.p0(i64 4, ptr %6) #9
  call void @llvm.lifetime.start.p0(i64 4, ptr %7) #9
  call void @llvm.lifetime.start.p0(i64 8, ptr %8) #9
  call void @llvm.lifetime.start.p0(i64 4, ptr %9) #9
  store i32 0, ptr %9, align 4, !tbaa !8
  call void @llvm.lifetime.start.p0(i64 4, ptr %10) #9
  %12 = load ptr, ptr %4, align 8, !tbaa !46
  %13 = getelementptr inbounds nuw %struct.Abc_Obj_t_, ptr %12, i32 0, i32 3
  %14 = load i32, ptr %13, align 4
  %15 = lshr i32 %14, 6
  %16 = and i32 %15, 1
  store i32 %16, ptr %10, align 4, !tbaa !8
  %17 = load ptr, ptr %4, align 8, !tbaa !46
  %18 = getelementptr inbounds nuw %struct.Abc_Obj_t_, ptr %17, i32 0, i32 3
  %19 = load i32, ptr %18, align 4
  %20 = lshr i32 %19, 5
  %21 = and i32 %20, 1
  %22 = icmp ne i32 %21, 0
  br i1 %22, label %136, label %23

23:                                               ; preds = %2
  %24 = load ptr, ptr %4, align 8, !tbaa !46
  %25 = getelementptr inbounds nuw %struct.Abc_Obj_t_, ptr %24, i32 0, i32 3
  %26 = load i32, ptr %25, align 4
  %27 = and i32 %26, -33
  %28 = or i32 %27, 32
  store i32 %28, ptr %25, align 4
  %29 = load ptr, ptr %4, align 8, !tbaa !46
  %30 = call i32 @Abc_ObjIsLatch(ptr noundef %29)
  %31 = icmp ne i32 %30, 0
  br i1 %31, label %32, label %33

32:                                               ; preds = %23
  store i32 1, ptr %10, align 4, !tbaa !8
  br label %33

33:                                               ; preds = %32, %23
  %34 = load ptr, ptr @pManMR, align 8, !tbaa !10
  %35 = getelementptr inbounds nuw %struct.MinRegMan_t_, ptr %34, i32 0, i32 13
  %36 = load i32, ptr %35, align 4, !tbaa !103
  %37 = icmp ne i32 %36, 0
  br i1 %37, label %47, label %38

38:                                               ; preds = %33
  %39 = load ptr, ptr %4, align 8, !tbaa !46
  %40 = call i32 @Abc_ObjIsPo(ptr noundef %39)
  %41 = icmp ne i32 %40, 0
  br i1 %41, label %47, label %42

42:                                               ; preds = %38
  %43 = load ptr, ptr %4, align 8, !tbaa !46
  %44 = call i32 @Abc_ObjFanoutNum(ptr noundef %43)
  %45 = icmp ne i32 %44, 0
  br i1 %45, label %47, label %46

46:                                               ; preds = %42
  store i32 -1, ptr %3, align 4
  store i32 1, ptr %11, align 4
  br label %169

47:                                               ; preds = %42, %38, %33
  store i32 0, ptr %6, align 4, !tbaa !8
  br label %48

48:                                               ; preds = %132, %47
  %49 = load i32, ptr %6, align 4, !tbaa !8
  %50 = load ptr, ptr %4, align 8, !tbaa !46
  %51 = call i32 @Abc_ObjFanoutNum(ptr noundef %50)
  %52 = icmp slt i32 %49, %51
  br i1 %52, label %53, label %57

53:                                               ; preds = %48
  %54 = load ptr, ptr %4, align 8, !tbaa !46
  %55 = load i32, ptr %6, align 4, !tbaa !8
  %56 = call ptr @Abc_ObjFanout(ptr noundef %54, i32 noundef %55)
  store ptr %56, ptr %8, align 8, !tbaa !46
  br label %57

57:                                               ; preds = %53, %48
  %58 = phi i1 [ false, %48 ], [ true, %53 ]
  br i1 %58, label %59, label %135

59:                                               ; preds = %57
  %60 = load ptr, ptr %8, align 8, !tbaa !46
  %61 = call i32 @Abc_ObjIsBo(ptr noundef %60)
  %62 = icmp ne i32 %61, 0
  br i1 %62, label %72, label %63

63:                                               ; preds = %59
  %64 = load ptr, ptr @pManMR, align 8, !tbaa !10
  %65 = getelementptr inbounds nuw %struct.MinRegMan_t_, ptr %64, i32 0, i32 13
  %66 = load i32, ptr %65, align 4, !tbaa !103
  %67 = icmp ne i32 %66, 0
  br i1 %67, label %68, label %84

68:                                               ; preds = %63
  %69 = load ptr, ptr %8, align 8, !tbaa !46
  %70 = call i32 @Abc_ObjIsPo(ptr noundef %69)
  %71 = icmp ne i32 %70, 0
  br i1 %71, label %72, label %84

72:                                               ; preds = %68, %59
  %73 = load i32, ptr %5, align 4, !tbaa !8
  %74 = icmp ne i32 %73, 0
  br i1 %74, label %83, label %75

75:                                               ; preds = %72
  %76 = load ptr, ptr %4, align 8, !tbaa !46
  %77 = call i32 @Abc_ObjIsLatch(ptr noundef %76)
  %78 = icmp ne i32 %77, 0
  br i1 %78, label %83, label %79

79:                                               ; preds = %75
  %80 = call i32 (ptr, ...) @printf(ptr noundef @.str.44)
  %81 = load ptr, ptr %8, align 8, !tbaa !46
  call void @print_node(ptr noundef %81)
  %82 = call i32 (ptr, ...) @printf(ptr noundef @.str.33)
  store i32 1, ptr @fPathError, align 4, !tbaa !8
  br label %83

83:                                               ; preds = %79, %75, %72
  br label %125

84:                                               ; preds = %68, %63
  %85 = load ptr, ptr @pManMR, align 8, !tbaa !10
  %86 = getelementptr inbounds nuw %struct.MinRegMan_t_, ptr %85, i32 0, i32 13
  %87 = load i32, ptr %86, align 4, !tbaa !103
  %88 = icmp ne i32 %87, 0
  br i1 %88, label %105, label %89

89:                                               ; preds = %84
  %90 = load ptr, ptr %8, align 8, !tbaa !46
  %91 = call i32 @Abc_ObjIsPo(ptr noundef %90)
  %92 = icmp ne i32 %91, 0
  br i1 %92, label %93, label %105

93:                                               ; preds = %89
  %94 = load i32, ptr %5, align 4, !tbaa !8
  %95 = icmp ne i32 %94, 0
  br i1 %95, label %100, label %96

96:                                               ; preds = %93
  %97 = load ptr, ptr %4, align 8, !tbaa !46
  %98 = call i32 @Abc_ObjIsLatch(ptr noundef %97)
  %99 = icmp ne i32 %98, 0
  br i1 %99, label %100, label %104

100:                                              ; preds = %96, %93
  %101 = call i32 (ptr, ...) @printf(ptr noundef @.str.45)
  %102 = load ptr, ptr %8, align 8, !tbaa !46
  call void @print_node(ptr noundef %102)
  %103 = call i32 (ptr, ...) @printf(ptr noundef @.str.33)
  store i32 1, ptr @fPathError, align 4, !tbaa !8
  br label %104

104:                                              ; preds = %100, %96
  br label %124

105:                                              ; preds = %89, %84
  %106 = load ptr, ptr %8, align 8, !tbaa !46
  %107 = load i32, ptr %5, align 4, !tbaa !8
  %108 = icmp ne i32 %107, 0
  br i1 %108, label %113, label %109

109:                                              ; preds = %105
  %110 = load ptr, ptr %4, align 8, !tbaa !46
  %111 = call i32 @Abc_ObjIsLatch(ptr noundef %110)
  %112 = icmp ne i32 %111, 0
  br label %113

113:                                              ; preds = %109, %105
  %114 = phi i1 [ true, %105 ], [ %112, %109 ]
  %115 = zext i1 %114 to i32
  %116 = call i32 @Abc_FlowRetime_VerifyPathLatencies_rec(ptr noundef %106, i32 noundef %115)
  store i32 %116, ptr %7, align 4, !tbaa !8
  %117 = load i32, ptr %7, align 4, !tbaa !8
  %118 = icmp sge i32 %117, 0
  br i1 %118, label %119, label %123

119:                                              ; preds = %113
  %120 = load i32, ptr %7, align 4, !tbaa !8
  %121 = load i32, ptr %10, align 4, !tbaa !8
  %122 = or i32 %121, %120
  store i32 %122, ptr %10, align 4, !tbaa !8
  store i32 1, ptr %9, align 4, !tbaa !8
  br label %123

123:                                              ; preds = %119, %113
  br label %124

124:                                              ; preds = %123, %104
  br label %125

125:                                              ; preds = %124, %83
  %126 = load i32, ptr @fPathError, align 4, !tbaa !8
  %127 = icmp ne i32 %126, 0
  br i1 %127, label %128, label %131

128:                                              ; preds = %125
  %129 = load ptr, ptr %4, align 8, !tbaa !46
  call void @print_node(ptr noundef %129)
  %130 = call i32 (ptr, ...) @printf(ptr noundef @.str.33)
  store i32 0, ptr %3, align 4
  store i32 1, ptr %11, align 4
  br label %169

131:                                              ; preds = %125
  br label %132

132:                                              ; preds = %131
  %133 = load i32, ptr %6, align 4, !tbaa !8
  %134 = add nsw i32 %133, 1
  store i32 %134, ptr %6, align 4, !tbaa !8
  br label %48, !llvm.loop !152

135:                                              ; preds = %57
  br label %136

136:                                              ; preds = %135, %2
  %137 = load i32, ptr %9, align 4, !tbaa !8
  %138 = icmp ne i32 %137, 0
  br i1 %138, label %140, label %139

139:                                              ; preds = %136
  store i32 -1, ptr %3, align 4
  store i32 1, ptr %11, align 4
  br label %169

140:                                              ; preds = %136
  %141 = load i32, ptr %10, align 4, !tbaa !8
  %142 = icmp ne i32 %141, 0
  br i1 %142, label %143, label %150

143:                                              ; preds = %140
  %144 = load i32, ptr %5, align 4, !tbaa !8
  %145 = icmp ne i32 %144, 0
  br i1 %145, label %146, label %150

146:                                              ; preds = %143
  %147 = call i32 (ptr, ...) @printf(ptr noundef @.str.46)
  %148 = load ptr, ptr %4, align 8, !tbaa !46
  call void @print_node(ptr noundef %148)
  %149 = call i32 (ptr, ...) @printf(ptr noundef @.str.33)
  store i32 1, ptr @fPathError, align 4, !tbaa !8
  br label %150

150:                                              ; preds = %146, %143, %140
  %151 = load i32, ptr %10, align 4, !tbaa !8
  %152 = icmp ne i32 %151, 0
  br i1 %152, label %160, label %153

153:                                              ; preds = %150
  %154 = load i32, ptr %5, align 4, !tbaa !8
  %155 = icmp ne i32 %154, 0
  br i1 %155, label %160, label %156

156:                                              ; preds = %153
  %157 = call i32 (ptr, ...) @printf(ptr noundef @.str.47)
  %158 = load ptr, ptr %4, align 8, !tbaa !46
  call void @print_node(ptr noundef %158)
  %159 = call i32 (ptr, ...) @printf(ptr noundef @.str.33)
  store i32 1, ptr @fPathError, align 4, !tbaa !8
  br label %160

160:                                              ; preds = %156, %153, %150
  %161 = load i32, ptr %10, align 4, !tbaa !8
  %162 = load ptr, ptr %4, align 8, !tbaa !46
  %163 = getelementptr inbounds nuw %struct.Abc_Obj_t_, ptr %162, i32 0, i32 3
  %164 = load i32, ptr %163, align 4
  %165 = and i32 %161, 1
  %166 = shl i32 %165, 6
  %167 = and i32 %164, -65
  %168 = or i32 %167, %166
  store i32 %168, ptr %163, align 4
  store i32 %165, ptr %3, align 4
  store i32 1, ptr %11, align 4
  br label %169

169:                                              ; preds = %160, %139, %128, %46
  call void @llvm.lifetime.end.p0(i64 4, ptr %10) #9
  call void @llvm.lifetime.end.p0(i64 4, ptr %9) #9
  call void @llvm.lifetime.end.p0(i64 8, ptr %8) #9
  call void @llvm.lifetime.end.p0(i64 4, ptr %7) #9
  call void @llvm.lifetime.end.p0(i64 4, ptr %6) #9
  %170 = load i32, ptr %3, align 4
  ret i32 %170
}