; Function Attrs: nofree nounwind uwtable
define internal fastcc range(i32 -1, 2) i32 @Abc_FlowRetime_VerifyPathLatencies_rec(ptr noundef captures(none) %0, i32 noundef range(i32 0, 2) %1) unnamed_addr #9 {
  %3 = getelementptr inbounds nuw i8, ptr %0, i64 20
  %4 = load i32, ptr %3, align 4
  %5 = and i32 %4, 32
  %.not = icmp eq i32 %5, 0
  br i1 %.not, label %6, label %.critedge.thread

6:                                                ; preds = %2
  %7 = lshr i32 %4, 6
  %8 = and i32 %7, 1
  %9 = or disjoint i32 %4, 32
  store i32 %9, ptr %3, align 4
  %10 = and i32 %4, 15
  %.not88 = icmp eq i32 %10, 8
  %spec.select = select i1 %.not88, i32 1, i32 %8
  %11 = load ptr, ptr @pManMR, align 8, !tbaa !3
  %12 = getelementptr inbounds nuw i8, ptr %11, i64 60
  %13 = load i32, ptr %12, align 4, !tbaa !72
  %.not46 = icmp eq i32 %13, 0
  %.not89 = icmp ne i32 %10, 3
  %or.cond95.not215 = and i1 %.not89, %.not46
  %.phi.trans.insert = getelementptr i8, ptr %0, i64 44
  %.val73104.pre = load i32, ptr %.phi.trans.insert, align 4, !tbaa !58
  %.not48 = icmp eq i32 %.val73104.pre, 0
  %or.cond214 = select i1 %or.cond95.not215, i1 %.not48, i1 false
  br i1 %or.cond214, label %.critedge.thread, label %._crit_edge

._crit_edge:                                      ; preds = %6
  %14 = getelementptr i8, ptr %0, i64 44
  %15 = icmp sgt i32 %.val73104.pre, 0
  br i1 %15, label %.lr.ph, label %.critedge.thread

.lr.ph:                                           ; preds = %._crit_edge
  %16 = getelementptr i8, ptr %0, i64 48
  %.not56 = icmp eq i32 %1, 0
  br i1 %.not56, label %.lr.ph.split.us, label %.lr.ph.split.split.split

.lr.ph.split.us:                                  ; preds = %.lr.ph, %26
  %indvars.iv192 = phi i64 [ %indvars.iv.next193, %26 ], [ 0, %.lr.ph ]
  %.2107.us = phi i32 [ %.3.ph.us, %26 ], [ %spec.select, %.lr.ph ]
  %.140106.us = phi i32 [ %.241.ph.us, %26 ], [ 0, %.lr.ph ]
  %.val76.us = load ptr, ptr %0, align 8, !tbaa !52
  %.val77.us = load ptr, ptr %16, align 8, !tbaa !57
  %17 = getelementptr i8, ptr %.val76.us, i64 32
  %.val76.val.us = load ptr, ptr %17, align 8, !tbaa !56
  %18 = getelementptr i8, ptr %.val76.val.us, i64 8
  %.val76.val.val.us = load ptr, ptr %18, align 8, !tbaa !28
  %19 = getelementptr inbounds nuw i32, ptr %.val77.us, i64 %indvars.iv192
  %20 = load i32, ptr %19, align 4, !tbaa !48
  %21 = sext i32 %20 to i64
  %22 = getelementptr inbounds ptr, ptr %.val76.val.val.us, i64 %21
  %23 = load ptr, ptr %22, align 8, !tbaa !51
  %24 = getelementptr i8, ptr %23, i64 20
  %.val75.us = load i32, ptr %24, align 4
  %25 = and i32 %.val75.us, 15
  %.not90.us = icmp eq i32 %25, 5
  br i1 %.not90.us, label %44, label %29

26:                                               ; preds = %46
  %indvars.iv.next193 = add nuw nsw i64 %indvars.iv192, 1
  %.val73.us = load i32, ptr %14, align 4, !tbaa !58
  %27 = sext i32 %.val73.us to i64
  %28 = icmp slt i64 %indvars.iv.next193, %27
  br i1 %28, label %.lr.ph.split.us, label %.critedge, !llvm.loop !145

29:                                               ; preds = %.lr.ph.split.us
  %30 = load ptr, ptr @pManMR, align 8, !tbaa !3
  %31 = getelementptr inbounds nuw i8, ptr %30, i64 60
  %32 = load i32, ptr %31, align 4, !tbaa !72
  %.not50.us = icmp eq i32 %32, 0
  %.not93.us = icmp eq i32 %25, 3
  br i1 %.not50.us, label %34, label %33

33:                                               ; preds = %29
  br i1 %.not93.us, label %44, label %35

34:                                               ; preds = %29
  br i1 %.not93.us, label %42, label %35

35:                                               ; preds = %34, %33
  %.val.us = load i32, ptr %3, align 4
  %36 = and i32 %.val.us, 15
  %37 = icmp eq i32 %36, 8
  %38 = zext i1 %37 to i32
  %39 = tail call fastcc i32 @Abc_FlowRetime_VerifyPathLatencies_rec(ptr noundef nonnull %23, i32 noundef %38)
  %40 = icmp sgt i32 %39, -1
  %spec.select68.us = select i1 %40, i32 1, i32 %.140106.us
  %41 = select i1 %40, i32 %39, i32 0
  %spec.select69.us = or i32 %41, %.2107.us
  br label %46

42:                                               ; preds = %34
  %.val70.us = load i32, ptr %3, align 4
  %43 = and i32 %.val70.us, 15
  %.not94.us = icmp eq i32 %43, 8
  br i1 %.not94.us, label %.thread81.sink.split, label %46

44:                                               ; preds = %.lr.ph.split.us, %33
  %.val71.us = load i32, ptr %3, align 4
  %45 = and i32 %.val71.us, 15
  %.not92.us = icmp eq i32 %45, 8
  br i1 %.not92.us, label %46, label %.thread81.sink.split

46:                                               ; preds = %44, %42, %35
  %.241.ph.us = phi i32 [ %spec.select68.us, %35 ], [ %.140106.us, %42 ], [ %.140106.us, %44 ]
  %.3.ph.us = phi i32 [ %spec.select69.us, %35 ], [ %.2107.us, %42 ], [ %.2107.us, %44 ]
  %.pr.us = load i32, ptr @fPathError, align 4, !tbaa !48
  %.not61.us = icmp eq i32 %.pr.us, 0
  br i1 %.not61.us, label %26, label %.thread81

47:                                               ; preds = %69
  %indvars.iv.next = add nuw nsw i64 %indvars.iv, 1
  %.val73 = load i32, ptr %14, align 4, !tbaa !58
  %48 = sext i32 %.val73 to i64
  %49 = icmp slt i64 %indvars.iv.next, %48
  br i1 %49, label %.lr.ph.split.split.split, label %.critedge, !llvm.loop !145

.lr.ph.split.split.split:                         ; preds = %.lr.ph, %47
  %indvars.iv = phi i64 [ %indvars.iv.next, %47 ], [ 0, %.lr.ph ]
  %.2107 = phi i32 [ %.3.ph, %47 ], [ %spec.select, %.lr.ph ]
  %.140106 = phi i32 [ %.241.ph, %47 ], [ 0, %.lr.ph ]
  %.val76 = load ptr, ptr %0, align 8, !tbaa !52
  %.val77 = load ptr, ptr %16, align 8, !tbaa !57
  %50 = getelementptr i8, ptr %.val76, i64 32
  %.val76.val = load ptr, ptr %50, align 8, !tbaa !56
  %51 = getelementptr i8, ptr %.val76.val, i64 8
  %.val76.val.val = load ptr, ptr %51, align 8, !tbaa !28
  %52 = getelementptr inbounds nuw i32, ptr %.val77, i64 %indvars.iv
  %53 = load i32, ptr %52, align 4, !tbaa !48
  %54 = sext i32 %53 to i64
  %55 = getelementptr inbounds ptr, ptr %.val76.val.val, i64 %54
  %56 = load ptr, ptr %55, align 8, !tbaa !51
  %57 = getelementptr i8, ptr %56, i64 20
  %.val75 = load i32, ptr %57, align 4
  %58 = and i32 %.val75, 15
  %.not90 = icmp eq i32 %58, 5
  br i1 %.not90, label %69, label %59

59:                                               ; preds = %.lr.ph.split.split.split
  %60 = load ptr, ptr @pManMR, align 8, !tbaa !3
  %61 = getelementptr inbounds nuw i8, ptr %60, i64 60
  %62 = load i32, ptr %61, align 4, !tbaa !72
  %.not50 = icmp eq i32 %62, 0
  %.not93 = icmp eq i32 %58, 3
  br i1 %.not50, label %64, label %63

63:                                               ; preds = %59
  br i1 %.not93, label %69, label %65

64:                                               ; preds = %59
  br i1 %.not93, label %.thread81.sink.split, label %65

65:                                               ; preds = %63, %64
  %66 = tail call fastcc i32 @Abc_FlowRetime_VerifyPathLatencies_rec(ptr noundef nonnull %56, i32 noundef 1)
  %67 = icmp sgt i32 %66, -1
  %spec.select68 = select i1 %67, i32 1, i32 %.140106
  %68 = select i1 %67, i32 %66, i32 0
  %spec.select69 = or i32 %68, %.2107
  br label %69

69:                                               ; preds = %.lr.ph.split.split.split, %63, %65
  %.241.ph = phi i32 [ %spec.select68, %65 ], [ %.140106, %63 ], [ %.140106, %.lr.ph.split.split.split ]
  %.3.ph = phi i32 [ %spec.select69, %65 ], [ %.2107, %63 ], [ %.2107, %.lr.ph.split.split.split ]
  %.pr = load i32, ptr @fPathError, align 4, !tbaa !48
  %.not61 = icmp eq i32 %.pr, 0
  br i1 %.not61, label %47, label %.thread81

.thread81.sink.split:                             ; preds = %64, %42, %44
  %str.15.sink = phi ptr [ @str.15, %44 ], [ @str.14, %42 ], [ @str.14, %64 ]
  %.lcssa204.sink = phi ptr [ %23, %44 ], [ %23, %42 ], [ %56, %64 ]
  %puts59 = tail call i32 @puts(ptr nonnull dereferenceable(1) %str.15.sink)
  tail call void @print_node(ptr noundef nonnull %.lcssa204.sink)
  %putchar60 = tail call i32 @putchar(i32 10)
  store i32 1, ptr @fPathError, align 4, !tbaa !48
  br label %.thread81

.thread81:                                        ; preds = %69, %46, %.thread81.sink.split
  tail call void @print_node(ptr noundef nonnull %0)
  %putchar62 = tail call i32 @putchar(i32 10)
  br label %.critedge.thread

.critedge:                                        ; preds = %47, %26
  %.140.lcssa = phi i32 [ %.241.ph.us, %26 ], [ %.241.ph, %47 ]
  %.2.lcssa = phi i32 [ %.3.ph.us, %26 ], [ %.3.ph, %47 ]
  %.not63 = icmp eq i32 %.140.lcssa, 0
  br i1 %.not63, label %.critedge.thread, label %70

70:                                               ; preds = %.critedge
  %71 = icmp ne i32 %.2.lcssa, 0
  %72 = icmp ne i32 %1, 0
  %or.cond = and i1 %72, %71
  br i1 %or.cond, label %73, label %74

73:                                               ; preds = %70
  %puts64 = tail call i32 @puts(ptr nonnull dereferenceable(1) @str.16)
  tail call void @print_node(ptr noundef nonnull %0)
  %putchar65 = tail call i32 @putchar(i32 10)
  store i32 1, ptr @fPathError, align 4, !tbaa !48
  br label %74

74:                                               ; preds = %73, %70
  %75 = or i32 %.2.lcssa, %1
  %or.cond3.not = icmp eq i32 %75, 0
  br i1 %or.cond3.not, label %76, label %77

76:                                               ; preds = %74
  %puts66 = tail call i32 @puts(ptr nonnull dereferenceable(1) @str.17)
  tail call void @print_node(ptr noundef nonnull %0)
  %putchar67 = tail call i32 @putchar(i32 10)
  store i32 1, ptr @fPathError, align 4, !tbaa !48
  br label %77

77:                                               ; preds = %76, %74
  %78 = load i32, ptr %3, align 4
  %79 = and i32 %.2.lcssa, 1
  %80 = shl nuw nsw i32 %79, 6
  %81 = and i32 %78, -65
  %82 = or disjoint i32 %81, %80
  store i32 %82, ptr %3, align 4
  br label %.critedge.thread

.critedge.thread:                                 ; preds = %6, %._crit_edge, %2, %.critedge, %77, %.thread81
  %.042 = phi i32 [ %79, %77 ], [ 0, %.thread81 ], [ -1, %.critedge ], [ -1, %2 ], [ -1, %._crit_edge ], [ -1, %6 ]
  ret i32 %.042
}